; Function Attrs: nounwind uwtable
define dso_local i32 @main(i32 noundef %0, ptr noundef %1) local_unnamed_addr #0 {
  %3 = alloca %struct.func_args, align 8
  call void @llvm.lifetime.start.p0(i64 40, ptr nonnull %3) #14
  store i32 %0, ptr %3, align 8, !tbaa !4
  %4 = getelementptr inbounds nuw i8, ptr %3, i64 8
  store ptr %1, ptr %4, align 8, !tbaa !13
  %5 = getelementptr inbounds nuw i8, ptr %3, i64 16
  store i32 0, ptr %5, align 8, !tbaa !18
  %6 = tail call i32 @wolfSSL_Init() #14
  br label %7

7:                                                ; preds = %13, %2
  %.0820.i = phi i32 [ 0, %2 ], [ %14, %13 ]
  %8 = tail call noalias ptr @fopen(ptr noundef nonnull @.str.8, ptr noundef nonnull @.str.38)
  %.not.i = icmp eq ptr %8, null
  br i1 %.not.i, label %9, label %ChangeToWolfRoot.exit

9:                                                ; preds = %7
  %10 = tail call i32 @chdir(ptr noundef nonnull @.str.39) #14
  %11 = icmp slt i32 %10, 0
  br i1 %11, label %12, label %13

12:                                               ; preds = %9
  %puts.i = tail call i32 @puts(ptr nonnull dereferenceable(1) @str.2)
  br label %.loopexit.i

13:                                               ; preds = %9
  %14 = add nuw nsw i32 %.0820.i, 1
  %exitcond.not.i = icmp eq i32 %14, 6
  br i1 %exitcond.not.i, label %.loopexit.i, label %7, !llvm.loop !38

.loopexit.i:                                      ; preds = %13, %12
  tail call fastcc void @err_sys(ptr noundef nonnull @.str.41) #15
  unreachable

ChangeToWolfRoot.exit:                            ; preds = %7
  %15 = tail call i32 @fclose(ptr noundef nonnull %8)
  %16 = call ptr @echoserver_test(ptr noundef nonnull %3)
  %17 = tail call i32 @wolfSSL_Cleanup() #14
  %18 = load i32, ptr %5, align 8, !tbaa !18
  call void @llvm.lifetime.end.p0(i64 40, ptr nonnull %3) #14
  ret i32 %18
}